; Function Attrs: mustprogress uwtable
define dso_local void @_ZN6Effect13update_purityEv(ptr noundef nonnull align 8 captures(none) dereferenceable(74) %0) local_unnamed_addr #5 align 2 {
  %2 = getelementptr inbounds nuw i8, ptr %0, i64 8
  %3 = load ptr, ptr %2, align 8, !tbaa !16
  %4 = load ptr, ptr %0, align 8, !tbaa !17
  %.not.i = icmp eq ptr %3, %4
  br i1 %.not.i, label %._crit_edge.i, label %.lr.ph.preheader.i

.lr.ph.preheader.i:                               ; preds = %1
  %5 = ptrtoint ptr %3 to i64
  %6 = ptrtoint ptr %4 to i64
  %7 = sub i64 %5, %6
  %8 = ashr exact i64 %7, 3
  %umax.i = tail call i64 @llvm.umax.i64(i64 %8, i64 1)
  br label %.lr.ph.i

9:                                                ; preds = %.lr.ph.i
  %10 = add nuw i64 %.011.i, 1
  %exitcond.not.i = icmp eq i64 %10, %umax.i
  br i1 %exitcond.not.i, label %._crit_edge.i, label %.lr.ph.i, !llvm.loop !156

.lr.ph.i:                                         ; preds = %9, %.lr.ph.preheader.i
  %.011.i = phi i64 [ %10, %9 ], [ 0, %.lr.ph.preheader.i ]
  %11 = load ptr, ptr %0, align 8, !tbaa !17
  %12 = getelementptr inbounds nuw ptr, ptr %11, i64 %.011.i
  %13 = load ptr, ptr %12, align 8, !tbaa !23
  %14 = load ptr, ptr %13, align 8, !tbaa !77
  %15 = getelementptr inbounds nuw i8, ptr %14, i64 16
  %16 = load ptr, ptr %15, align 8
  %17 = tail call noundef zeroext i1 %16(ptr noundef nonnull align 8 dereferenceable(200) %13)
  br i1 %17, label %.loopexit, label %9

._crit_edge.i:                                    ; preds = %9, %1
  %18 = getelementptr inbounds nuw i8, ptr %0, i64 24
  %19 = getelementptr inbounds nuw i8, ptr %0, i64 32
  %20 = load ptr, ptr %19, align 8, !tbaa !16
  %21 = load ptr, ptr %18, align 8, !tbaa !17
  %.not17.i = icmp eq ptr %20, %21
  br i1 %.not17.i, label %_ZNK6Effect17has_global_effectEv.exit, label %.lr.ph14.preheader.i

.lr.ph14.preheader.i:                             ; preds = %._crit_edge.i
  %22 = ptrtoint ptr %20 to i64
  %23 = ptrtoint ptr %21 to i64
  %24 = sub i64 %22, %23
  %25 = ashr exact i64 %24, 3
  %umax19.i = tail call i64 @llvm.umax.i64(i64 %25, i64 1)
  br label %.lr.ph14.i

26:                                               ; preds = %.lr.ph14.i
  %27 = add nuw i64 %.112.i, 1
  %exitcond20.not.i = icmp eq i64 %27, %umax19.i
  br i1 %exitcond20.not.i, label %_ZNK6Effect17has_global_effectEv.exit, label %.lr.ph14.i, !llvm.loop !157

.lr.ph14.i:                                       ; preds = %26, %.lr.ph14.preheader.i
  %.112.i = phi i64 [ %27, %26 ], [ 0, %.lr.ph14.preheader.i ]
  %28 = load ptr, ptr %18, align 8, !tbaa !17
  %29 = getelementptr inbounds nuw ptr, ptr %28, i64 %.112.i
  %30 = load ptr, ptr %29, align 8, !tbaa !23
  %31 = load ptr, ptr %30, align 8, !tbaa !77
  %32 = getelementptr inbounds nuw i8, ptr %31, i64 16
  %33 = load ptr, ptr %32, align 8
  %34 = tail call noundef zeroext i1 %33(ptr noundef nonnull align 8 dereferenceable(200) %30)
  br i1 %34, label %.loopexit, label %26

.loopexit:                                        ; preds = %.lr.ph.i, %.lr.ph14.i
  %35 = getelementptr inbounds nuw i8, ptr %0, i64 72
  store i8 0, ptr %35, align 8, !tbaa !4
  br label %_ZNK6Effect17has_global_effectEv.exit

_ZNK6Effect17has_global_effectEv.exit:            ; preds = %26, %._crit_edge.i, %.loopexit
  ret void
}